; Function Attrs: mustprogress uwtable
define noundef zeroext i1 @_ZNK7xgboost9JsonArrayeqERKNS_5ValueE(ptr noundef nonnull readonly align 8 captures(none) dereferenceable(48) %0, ptr noundef nonnull align 8 dereferenceable(24) %1) unnamed_addr #3 align 2 {
  %3 = getelementptr inbounds nuw i8, ptr %1, i64 16
  %4 = load i64, ptr %3, align 8, !tbaa !8
  %5 = icmp eq i64 %4, 4
  br i1 %5, label %6, label %_ZSt5equalIN9__gnu_cxx17__normal_iteratorIPKN7xgboost4JsonESt6vectorIS3_SaIS3_EEEES9_EbT_SA_T0_.exit

6:                                                ; preds = %2
  %7 = tail call noundef ptr @_ZN7xgboost4CastIKNS_9JsonArrayEKNS_5ValueEEEPT_PT0_(ptr noundef nonnull %1)
  %8 = getelementptr inbounds nuw i8, ptr %7, i64 24
  %9 = getelementptr inbounds nuw i8, ptr %0, i64 24
  %10 = getelementptr inbounds nuw i8, ptr %0, i64 32
  %11 = load ptr, ptr %10, align 8, !tbaa !183
  %12 = load ptr, ptr %9, align 8, !tbaa !186
  %13 = ptrtoint ptr %11 to i64
  %14 = ptrtoint ptr %12 to i64
  %15 = sub i64 %13, %14
  %16 = getelementptr inbounds nuw i8, ptr %7, i64 32
  %17 = load ptr, ptr %16, align 8, !tbaa !183
  %18 = load ptr, ptr %8, align 8, !tbaa !186
  %19 = ptrtoint ptr %17 to i64
  %20 = ptrtoint ptr %18 to i64
  %21 = sub i64 %19, %20
  %.not = icmp eq i64 %15, %21
  br i1 %.not, label %22, label %_ZSt5equalIN9__gnu_cxx17__normal_iteratorIPKN7xgboost4JsonESt6vectorIS3_SaIS3_EEEES9_EbT_SA_T0_.exit

22:                                               ; preds = %6
  %.not9.i.i.i.i = icmp eq ptr %18, %17
  br i1 %.not9.i.i.i.i, label %_ZSt5equalIN9__gnu_cxx17__normal_iteratorIPKN7xgboost4JsonESt6vectorIS3_SaIS3_EEEES9_EbT_SA_T0_.exit, label %.lr.ph.i.i.i.i

.lr.ph.i.i.i.i:                                   ; preds = %22, %.lr.ph.i.i.i.i
  %.011.i.i.i.i = phi ptr [ %30, %.lr.ph.i.i.i.i ], [ %12, %22 ]
  %.0810.i.i.i.i = phi ptr [ %29, %.lr.ph.i.i.i.i ], [ %18, %22 ]
  %23 = load ptr, ptr %.0810.i.i.i.i, align 8, !tbaa !173
  %24 = load ptr, ptr %.011.i.i.i.i, align 8, !tbaa !173
  %25 = load ptr, ptr %23, align 8, !tbaa !13
  %26 = getelementptr inbounds nuw i8, ptr %25, i64 40
  %27 = load ptr, ptr %26, align 8
  %28 = tail call noundef zeroext i1 %27(ptr noundef nonnull align 8 dereferenceable(24) %23, ptr noundef nonnull align 8 dereferenceable(24) %24)
  %29 = getelementptr inbounds nuw i8, ptr %.0810.i.i.i.i, i64 8
  %30 = getelementptr inbounds nuw i8, ptr %.011.i.i.i.i, i64 8
  %.not.i.i.i.i = icmp ne ptr %29, %17
  %or.cond.not = select i1 %28, i1 %.not.i.i.i.i, i1 false
  br i1 %or.cond.not, label %.lr.ph.i.i.i.i, label %_ZSt5equalIN9__gnu_cxx17__normal_iteratorIPKN7xgboost4JsonESt6vectorIS3_SaIS3_EEEES9_EbT_SA_T0_.exit, !llvm.loop !274

_ZSt5equalIN9__gnu_cxx17__normal_iteratorIPKN7xgboost4JsonESt6vectorIS3_SaIS3_EEEES9_EbT_SA_T0_.exit: ; preds = %.lr.ph.i.i.i.i, %22, %6, %2
  %.0 = phi i1 [ false, %2 ], [ false, %6 ], [ true, %22 ], [ %28, %.lr.ph.i.i.i.i ]
  ret i1 %.0
}